target datalayout = "e-m:e-p270:32:32-p271:32:32-p272:64:64-i64:64-i128:128-f80:128-n8:16:32:64-S128"
target triple = "x86_64-pc-linux-gnu"

%struct.Abc_Ntk_t_ = type { i32, i32, ptr, ptr, ptr, ptr, ptr, ptr, ptr, ptr, ptr, ptr, ptr, [11 x i32], i32, i32, i32, i32, ptr, i32, ptr, ptr, i32, i32, i32, double, i32, %struct.Vec_Int_t_, ptr, ptr, ptr, ptr, ptr, float, i32, ptr, ptr, ptr, ptr, ptr, ptr, ptr, ptr, ptr, ptr, ptr, ptr, ptr, ptr, ptr, ptr, ptr, ptr, ptr, ptr, ptr, ptr }
%struct.Vec_Int_t_ = type { i32, i32, ptr }
%struct.Vec_Ptr_t_ = type { i32, i32, ptr }

@.str.3 = private unnamed_addr constant [2 x i8] c"\0A\00", align 1
@.str.7 = private unnamed_addr constant [3 x i8] c"wb\00", align 1
@.str.8 = private unnamed_addr constant [34 x i8] c"Cannot open file %s for writing.\0A\00", align 1
@.str.9 = private unnamed_addr constant [71 x i8] c"# Node equivalences computed by ABC for networks \22%s\22 and \22%s\22 on %s\0A\0A\00", align 1
@.str.10 = private unnamed_addr constant [12 x i8] c"%d:%s:%s%s\0A\00", align 1
@.str.11 = private unnamed_addr constant [5 x i8] c"NOT:\00", align 1
@.str.12 = private unnamed_addr constant [1 x i8] zeroinitializer, align 1

; Function Attrs: inlinehint nounwind uwtable
define internal ptr @Vec_PtrEntry(ptr noundef %0, i32 noundef %1) #1 {
  %3 = alloca ptr, align 8
  %4 = alloca i32, align 4
  store ptr %0, ptr %3, align 8, !tbaa !41
  store i32 %1, ptr %4, align 4, !tbaa !36
  %5 = load ptr, ptr %3, align 8, !tbaa !41
  %6 = getelementptr inbounds nuw %struct.Vec_Ptr_t_, ptr %5, i32 0, i32 2
  %7 = load ptr, ptr %6, align 8, !tbaa !53
  %8 = load i32, ptr %4, align 4, !tbaa !36
  %9 = sext i32 %8 to i64
  %10 = getelementptr inbounds ptr, ptr %7, i64 %9
  %11 = load ptr, ptr %10, align 8, !tbaa !54
  ret ptr %11
}

; Function Attrs: inlinehint nounwind uwtable
define internal ptr @Abc_NtkObj(ptr noundef %0, i32 noundef %1) #1 {
  %3 = alloca ptr, align 8
  %4 = alloca i32, align 4
  store ptr %0, ptr %3, align 8, !tbaa !15
  store i32 %1, ptr %4, align 4, !tbaa !36
  %5 = load ptr, ptr %3, align 8, !tbaa !15
  %6 = getelementptr inbounds nuw %struct.Abc_Ntk_t_, ptr %5, i32 0, i32 5
  %7 = load ptr, ptr %6, align 8, !tbaa !58
  %8 = load i32, ptr %4, align 4, !tbaa !36
  %9 = call ptr @Vec_PtrEntry(ptr noundef %7, i32 noundef %8)
  ret ptr %9
}

; Function Attrs: inlinehint nounwind uwtable
define internal i32 @Vec_IntEntry(ptr noundef %0, i32 noundef %1) #1 {
  %3 = alloca ptr, align 8
  %4 = alloca i32, align 4
  store ptr %0, ptr %3, align 8, !tbaa !17
  store i32 %1, ptr %4, align 4, !tbaa !36
  %5 = load ptr, ptr %3, align 8, !tbaa !17
  %6 = getelementptr inbounds nuw %struct.Vec_Int_t_, ptr %5, i32 0, i32 2
  %7 = load ptr, ptr %6, align 8, !tbaa !50
  %8 = load i32, ptr %4, align 4, !tbaa !36
  %9 = sext i32 %8 to i64
  %10 = getelementptr inbounds i32, ptr %7, i64 %9
  %11 = load i32, ptr %10, align 4, !tbaa !36
  ret i32 %11
}

; Function Attrs: inlinehint nounwind uwtable
define internal i32 @Vec_IntSize(ptr noundef %0) #1 {
  %2 = alloca ptr, align 8
  store ptr %0, ptr %2, align 8, !tbaa !17
  %3 = load ptr, ptr %2, align 8, !tbaa !17
  %4 = getelementptr inbounds nuw %struct.Vec_Int_t_, ptr %3, i32 0, i32 1
  %5 = load i32, ptr %4, align 4, !tbaa !86
  ret i32 %5
}

; Function Attrs: inlinehint nounwind uwtable
define internal ptr @Abc_NtkName(ptr noundef %0) #1 {
  %2 = alloca ptr, align 8
  store ptr %0, ptr %2, align 8, !tbaa !15
  %3 = load ptr, ptr %2, align 8, !tbaa !15
  %4 = getelementptr inbounds nuw %struct.Abc_Ntk_t_, ptr %3, i32 0, i32 2
  %5 = load ptr, ptr %4, align 8, !tbaa !90
  ret ptr %5
}

; Function Attrs: nounwind uwtable
define void @Abc_NtkDumpEquivFile(ptr noundef %0, ptr noundef %1, ptr noundef %2) #0 {
  %4 = alloca ptr, align 8
  %5 = alloca ptr, align 8
  %6 = alloca ptr, align 8
  %7 = alloca i32, align 4
  %8 = alloca i32, align 4
  %9 = alloca i32, align 4
  %10 = alloca i32, align 4
  %11 = alloca ptr, align 8
  %12 = alloca i32, align 4
  %13 = alloca ptr, align 8
  %14 = alloca ptr, align 8
  store ptr %0, ptr %4, align 8, !tbaa !89
  store ptr %1, ptr %5, align 8, !tbaa !17
  store ptr %2, ptr %6, align 8, !tbaa !94
  call void @llvm.lifetime.start.p0(i64 4, ptr %7) #10
  call void @llvm.lifetime.start.p0(i64 4, ptr %8) #10
  call void @llvm.lifetime.start.p0(i64 4, ptr %9) #10
  call void @llvm.lifetime.start.p0(i64 4, ptr %10) #10
  call void @llvm.lifetime.start.p0(i64 8, ptr %11) #10
  %15 = load ptr, ptr %4, align 8, !tbaa !89
  %16 = call noalias ptr @fopen(ptr noundef %15, ptr noundef @.str.7)
  store ptr %16, ptr %11, align 8, !tbaa !107
  %17 = load ptr, ptr %11, align 8, !tbaa !107
  %18 = icmp eq ptr %17, null
  br i1 %18, label %19, label %22

19:                                               ; preds = %3
  %20 = load ptr, ptr %4, align 8, !tbaa !89
  %21 = call i32 (ptr, ...) @printf(ptr noundef @.str.8, ptr noundef %20)
  store i32 1, ptr %12, align 4
  br label %98

22:                                               ; preds = %3
  %23 = load ptr, ptr %11, align 8, !tbaa !107
  %24 = load ptr, ptr %6, align 8, !tbaa !94
  %25 = getelementptr inbounds ptr, ptr %24, i64 0
  %26 = load ptr, ptr %25, align 8, !tbaa !15
  %27 = call ptr @Abc_NtkName(ptr noundef %26)
  %28 = load ptr, ptr %6, align 8, !tbaa !94
  %29 = getelementptr inbounds ptr, ptr %28, i64 1
  %30 = load ptr, ptr %29, align 8, !tbaa !15
  %31 = call ptr @Abc_NtkName(ptr noundef %30)
  %32 = call ptr (...) @Extra_TimeStamp()
  %33 = call i32 (ptr, ptr, ...) @fprintf(ptr noundef %23, ptr noundef @.str.9, ptr noundef %27, ptr noundef %31, ptr noundef %32) #10
  store i32 0, ptr %8, align 4, !tbaa !36
  store i32 0, ptr %7, align 4, !tbaa !36
  br label %34

34:                                               ; preds = %86, %22
  %35 = load i32, ptr %7, align 4, !tbaa !36
  %36 = load ptr, ptr %5, align 8, !tbaa !17
  %37 = call i32 @Vec_IntSize(ptr noundef %36)
  %38 = icmp slt i32 %35, %37
  br i1 %38, label %39, label %95

39:                                               ; preds = %34
  %40 = load i32, ptr %7, align 4, !tbaa !36
  %41 = add nsw i32 %40, 1
  store i32 %41, ptr %9, align 4, !tbaa !36
  br label %42

42:                                               ; preds = %80, %39
  %43 = load i32, ptr %9, align 4, !tbaa !36
  %44 = load i32, ptr %7, align 4, !tbaa !36
  %45 = add nsw i32 %44, 1
  %46 = load ptr, ptr %5, align 8, !tbaa !17
  %47 = load i32, ptr %7, align 4, !tbaa !36
  %48 = call i32 @Vec_IntEntry(ptr noundef %46, i32 noundef %47)
  %49 = add nsw i32 %45, %48
  %50 = icmp slt i32 %43, %49
  br i1 %50, label %51, label %55

51:                                               ; preds = %42
  %52 = load ptr, ptr %5, align 8, !tbaa !17
  %53 = load i32, ptr %9, align 4, !tbaa !36
  %54 = call i32 @Vec_IntEntry(ptr noundef %52, i32 noundef %53)
  store i32 %54, ptr %10, align 4, !tbaa !36
  br label %55

55:                                               ; preds = %51, %42
  %56 = phi i1 [ false, %42 ], [ true, %51 ]
  br i1 %56, label %57, label %83

57:                                               ; preds = %55
  call void @llvm.lifetime.start.p0(i64 8, ptr %13) #10
  %58 = load ptr, ptr %6, align 8, !tbaa !94
  %59 = load i32, ptr %10, align 4, !tbaa !36
  %60 = and i32 %59, 1
  %61 = sext i32 %60 to i64
  %62 = getelementptr inbounds ptr, ptr %58, i64 %61
  %63 = load ptr, ptr %62, align 8, !tbaa !15
  store ptr %63, ptr %13, align 8, !tbaa !15
  call void @llvm.lifetime.start.p0(i64 8, ptr %14) #10
  %64 = load ptr, ptr %13, align 8, !tbaa !15
  %65 = load i32, ptr %10, align 4, !tbaa !36
  %66 = ashr i32 %65, 2
  %67 = call ptr @Abc_NtkObj(ptr noundef %64, i32 noundef %66)
  %68 = call ptr @Abc_ObjName(ptr noundef %67)
  store ptr %68, ptr %14, align 8, !tbaa !89
  %69 = load ptr, ptr %11, align 8, !tbaa !107
  %70 = load i32, ptr %8, align 4, !tbaa !36
  %71 = add nsw i32 %70, 1
  %72 = load ptr, ptr %13, align 8, !tbaa !15
  %73 = call ptr @Abc_NtkName(ptr noundef %72)
  %74 = load i32, ptr %10, align 4, !tbaa !36
  %75 = and i32 %74, 2
  %76 = icmp ne i32 %75, 0
  %77 = select i1 %76, ptr @.str.11, ptr @.str.12
  %78 = load ptr, ptr %14, align 8, !tbaa !89
  %79 = call i32 (ptr, ptr, ...) @fprintf(ptr noundef %69, ptr noundef @.str.10, i32 noundef %71, ptr noundef %73, ptr noundef %77, ptr noundef %78) #10
  call void @llvm.lifetime.end.p0(i64 8, ptr %14) #10
  call void @llvm.lifetime.end.p0(i64 8, ptr %13) #10
  br label %80

80:                                               ; preds = %57
  %81 = load i32, ptr %9, align 4, !tbaa !36
  %82 = add nsw i32 %81, 1
  store i32 %82, ptr %9, align 4, !tbaa !36
  br label %42, !llvm.loop !109

83:                                               ; preds = %55
  %84 = load ptr, ptr %11, align 8, !tbaa !107
  %85 = call i32 (ptr, ptr, ...) @fprintf(ptr noundef %84, ptr noundef @.str.3) #10
  br label %86

86:                                               ; preds = %83
  %87 = load i32, ptr %8, align 4, !tbaa !36
  %88 = add nsw i32 %87, 1
  store i32 %88, ptr %8, align 4, !tbaa !36
  %89 = load ptr, ptr %5, align 8, !tbaa !17
  %90 = load i32, ptr %7, align 4, !tbaa !36
  %91 = call i32 @Vec_IntEntry(ptr noundef %89, i32 noundef %90)
  %92 = add nsw i32 1, %91
  %93 = load i32, ptr %7, align 4, !tbaa !36
  %94 = add nsw i32 %93, %92
  store i32 %94, ptr %7, align 4, !tbaa !36
  br label %34, !llvm.loop !110

95:                                               ; preds = %34
  %96 = load ptr, ptr %11, align 8, !tbaa !107
  %97 = call i32 @fclose(ptr noundef %96)
  store i32 0, ptr %12, align 4
  br label %98

98:                                               ; preds = %95, %19
  call void @llvm.lifetime.end.p0(i64 8, ptr %11) #10
  call void @llvm.lifetime.end.p0(i64 4, ptr %10) #10
  call void @llvm.lifetime.end.p0(i64 4, ptr %9) #10
  call void @llvm.lifetime.end.p0(i64 4, ptr %8) #10
  call void @llvm.lifetime.end.p0(i64 4, ptr %7) #10
  %99 = load i32, ptr %12, align 4
  switch i32 %99, label %101 [
    i32 0, label %100
    i32 1, label %100
  ]

100:                                              ; preds = %98, %98
  ret void

101:                                              ; preds = %98
  unreachable
}