; Function Attrs: nounwind uwtable
define void @Abc_NtkDumpEquivFile(ptr noundef %0, ptr noundef readonly captures(none) %1, ptr noundef readonly captures(none) %2) local_unnamed_addr #0 {
  %4 = tail call noalias ptr @fopen(ptr noundef %0, ptr noundef nonnull @.str.7)
  %5 = icmp eq ptr %4, null
  br i1 %5, label %6, label %8

6:                                                ; preds = %3
  %7 = tail call i32 (ptr, ...) @printf(ptr noundef nonnull dereferenceable(1) @.str.8, ptr noundef %0)
  br label %55

8:                                                ; preds = %3
  %9 = load ptr, ptr %2, align 8, !tbaa !84
  %10 = getelementptr i8, ptr %9, i64 8
  %.val39 = load ptr, ptr %10, align 8, !tbaa !75
  %11 = getelementptr inbounds nuw i8, ptr %2, i64 8
  %12 = load ptr, ptr %11, align 8, !tbaa !84
  %13 = getelementptr i8, ptr %12, i64 8
  %.val38 = load ptr, ptr %13, align 8, !tbaa !75
  %14 = tail call ptr (...) @Extra_TimeStamp() #15
  %15 = tail call i32 (ptr, ptr, ...) @fprintf(ptr noundef nonnull %4, ptr noundef nonnull @.str.9, ptr noundef %.val39, ptr noundef %.val38, ptr noundef %14) #15
  %16 = getelementptr i8, ptr %1, i64 4
  %.val3544 = load i32, ptr %16, align 4, !tbaa !68
  %17 = icmp sgt i32 %.val3544, 0
  br i1 %17, label %.lr.ph47, label %._crit_edge

.lr.ph47:                                         ; preds = %8
  %18 = getelementptr i8, ptr %1, i64 8
  %.val3441.pre = load ptr, ptr %18, align 8, !tbaa !38
  br label %19

19:                                               ; preds = %.lr.ph47, %.critedge
  %.val3441 = phi ptr [ %.val3441.pre, %.lr.ph47 ], [ %.val, %.critedge ]
  %.046 = phi i32 [ 0, %.lr.ph47 ], [ %52, %.critedge ]
  %.03045 = phi i32 [ 0, %.lr.ph47 ], [ %25, %.critedge ]
  %20 = add nsw i32 %.046, 1
  %21 = sext i32 %.046 to i64
  %22 = getelementptr inbounds i32, ptr %.val3441, i64 %21
  %23 = load i32, ptr %22, align 4, !tbaa !39
  %24 = icmp sgt i32 %23, 0
  %25 = add nuw nsw i32 %.03045, 1
  br i1 %24, label %.lr.ph, label %.critedge

.lr.ph:                                           ; preds = %19
  %26 = sext i32 %20 to i64
  br label %27

27:                                               ; preds = %.lr.ph, %27
  %indvars.iv = phi i64 [ %26, %.lr.ph ], [ %indvars.iv.next, %27 ]
  %.val3443 = phi ptr [ %.val3441, %.lr.ph ], [ %.val34, %27 ]
  %28 = getelementptr inbounds i32, ptr %.val3443, i64 %indvars.iv
  %29 = load i32, ptr %28, align 4, !tbaa !39
  %30 = and i32 %29, 1
  %31 = zext nneg i32 %30 to i64
  %32 = getelementptr inbounds nuw ptr, ptr %2, i64 %31
  %33 = load ptr, ptr %32, align 8, !tbaa !84
  %34 = ashr i32 %29, 2
  %35 = getelementptr i8, ptr %33, i64 32
  %.val36 = load ptr, ptr %35, align 8, !tbaa !61
  %36 = getelementptr i8, ptr %.val36, i64 8
  %.val36.val = load ptr, ptr %36, align 8, !tbaa !36
  %37 = sext i32 %34 to i64
  %38 = getelementptr inbounds ptr, ptr %.val36.val, i64 %37
  %39 = load ptr, ptr %38, align 8, !tbaa !37
  %40 = tail call ptr @Abc_ObjName(ptr noundef %39) #15
  %41 = getelementptr i8, ptr %33, i64 8
  %.val37 = load ptr, ptr %41, align 8, !tbaa !75
  %42 = and i32 %29, 2
  %.not = icmp eq i32 %42, 0
  %43 = select i1 %.not, ptr @.str.12, ptr @.str.11
  %44 = tail call i32 (ptr, ptr, ...) @fprintf(ptr noundef nonnull %4, ptr noundef nonnull @.str.10, i32 noundef %25, ptr noundef %.val37, ptr noundef nonnull %43, ptr noundef %40) #15
  %indvars.iv.next = add nsw i64 %indvars.iv, 1
  %.val34 = load ptr, ptr %18, align 8, !tbaa !38
  %45 = getelementptr inbounds i32, ptr %.val34, i64 %21
  %46 = load i32, ptr %45, align 4, !tbaa !39
  %47 = add nsw i32 %46, %20
  %48 = sext i32 %47 to i64
  %49 = icmp slt i64 %indvars.iv.next, %48
  br i1 %49, label %27, label %.critedge, !llvm.loop !96

.critedge:                                        ; preds = %27, %19
  %fputc = tail call i32 @fputc(i32 10, ptr nonnull %4)
  %.val = load ptr, ptr %18, align 8, !tbaa !38
  %50 = getelementptr inbounds i32, ptr %.val, i64 %21
  %51 = load i32, ptr %50, align 4, !tbaa !39
  %52 = add i32 %20, %51
  %.val35 = load i32, ptr %16, align 4, !tbaa !68
  %53 = icmp slt i32 %52, %.val35
  br i1 %53, label %19, label %._crit_edge, !llvm.loop !97

._crit_edge:                                      ; preds = %.critedge, %8
  %54 = tail call i32 @fclose(ptr noundef nonnull %4)
  br label %55

55:                                               ; preds = %._crit_edge, %6
  ret void
}